target datalayout = "e-m:e-p270:32:32-p271:32:32-p272:64:64-i64:64-i128:128-f80:128-n8:16:32:64-S128"
target triple = "x86_64-pc-linux-gnu"

%struct.H5MF_free_section_t = type { %struct.H5FS_section_info_t }
%struct.H5FS_section_info_t = type { i64, i64, i32, i32 }
%struct.H5MF_sect_ud_t = type { ptr, i32, i8, i8, i32, ptr }
%struct.H5F_t = type { ptr, ptr, ptr, ptr, i32, ptr, i8, i8, ptr, i32 }
%struct.H5F_shared_t = type { ptr, ptr, ptr, i8, i32, i32, %struct.H5F_mtab_t, ptr, i8, i8, i64, i32, i32, i64, i64, ptr, ptr, %struct.H5AC_cache_config_t, %struct.H5AC_cache_image_config_t, i8, i8, ptr, i64, i32, i8, i64, i64, double, i64, i64, i64, i32, i32, i32, i8, i32, ptr, ptr, ptr, ptr, i8, i8, i8, i64, i64, ptr, ptr, i32, i64, i8, i32, i8, i64, i8, [13 x i32], [13 x i64], [13 x ptr], i8, i64, i64, [7 x i32], [7 x i32], %struct.H5F_blk_aggr_t, %struct.H5F_blk_aggr_t, i64, i64, %struct.H5F_meta_accum_t, i32, i32, [30 x ptr], %struct.H5F_object_flush_t, i8, ptr }
%struct.H5F_mtab_t = type { i32, i32, ptr }
%struct.H5AC_cache_config_t = type { i32, i8, i8, i8, [1025 x i8], i8, i8, i64, double, i64, i64, i64, i32, double, double, i8, i64, i32, double, double, i32, double, double, i8, i64, i32, i8, double, i64, i32 }
%struct.H5AC_cache_image_config_t = type { i32, i8, i8, i32 }
%struct.H5F_blk_aggr_t = type { i64, i64, i64, i64, i64 }
%struct.H5F_meta_accum_t = type { ptr, i64, i64, i64, i64, i64, i8 }
%struct.H5F_object_flush_t = type { ptr, ptr }

@.str = private unnamed_addr constant [105 x i8] c"generated/home/dtcxzyw/WorkSpace/Projects/compilers/llvm-opt-benchmark/bench/hdf5/hdf5/src/H5MFsection.c\00", align 1
@H5E_RESOURCE_g = external global i64, align 8
@__func__.H5MF__sect_simple_can_shrink = private unnamed_addr constant [29 x i8] c"H5MF__sect_simple_can_shrink\00", align 1
@H5E_CANTGET_g = external global i64, align 8
@.str.5 = private unnamed_addr constant [30 x i8] c"driver get_eoa request failed\00", align 1
@H5E_CANTMERGE_g = external global i64, align 8
@.str.6 = private unnamed_addr constant [45 x i8] c"error merging section with aggregation block\00", align 1

; Function Attrs: nounwind uwtable
define internal i32 @H5MF__sect_simple_can_shrink(ptr noundef %0, ptr noundef %1) #0 {
  %3 = alloca ptr, align 8
  %4 = alloca ptr, align 8
  %5 = alloca ptr, align 8
  %6 = alloca ptr, align 8
  %7 = alloca i64, align 8
  %8 = alloca i64, align 8
  %9 = alloca i32, align 4
  %10 = alloca i8, align 1
  %11 = alloca i32, align 4
  %12 = alloca i32, align 4
  store ptr %0, ptr %3, align 8
  store ptr %1, ptr %4, align 8
  %13 = load ptr, ptr %3, align 8
  store ptr %13, ptr %5, align 8
  %14 = load ptr, ptr %4, align 8
  store ptr %14, ptr %6, align 8
  store i32 -1, ptr %9, align 4
  store i8 0, ptr %10, align 1
  %15 = load ptr, ptr %6, align 8
  %16 = getelementptr inbounds %struct.H5MF_sect_ud_t, ptr %15, i32 0, i32 0
  %17 = load ptr, ptr %16, align 8
  %18 = load ptr, ptr %6, align 8
  %19 = getelementptr inbounds %struct.H5MF_sect_ud_t, ptr %18, i32 0, i32 1
  %20 = load i32, ptr %19, align 8
  %21 = call i64 @H5F_get_eoa(ptr noundef %17, i32 noundef %20)
  store i64 %21, ptr %7, align 8
  %22 = icmp eq i64 -1, %21
  br i1 %22, label %23, label %38

23:                                               ; preds = %2
  br label %24

24:                                               ; preds = %23
  br label %25

25:                                               ; preds = %24
  br label %26

26:                                               ; preds = %25
  %27 = load i64, ptr @H5E_RESOURCE_g, align 8
  %28 = load i64, ptr @H5E_CANTGET_g, align 8
  %29 = call i32 (ptr, ptr, i32, i64, i64, ptr, ...) @H5E_printf_stack(ptr noundef @.str, ptr noundef @__func__.H5MF__sect_simple_can_shrink, i32 noundef 439, i64 noundef %27, i64 noundef %28, ptr noundef @.str.5)
  br label %30

30:                                               ; preds = %26
  store i8 1, ptr %10, align 1
  %31 = load i8, ptr %10, align 1
  %32 = trunc i8 %31 to i1
  %33 = zext i1 %32 to i8
  store i8 %33, ptr %10, align 1
  br label %34

34:                                               ; preds = %30
  br label %35

35:                                               ; preds = %34
  store i32 -1, ptr %9, align 4
  br label %191

36:                                               ; No predecessors!
  br label %37

37:                                               ; preds = %36
  br label %38

38:                                               ; preds = %37, %2
  %39 = load ptr, ptr %5, align 8
  %40 = getelementptr inbounds %struct.H5MF_free_section_t, ptr %39, i32 0, i32 0
  %41 = getelementptr inbounds %struct.H5FS_section_info_t, ptr %40, i32 0, i32 0
  %42 = load i64, ptr %41, align 8
  %43 = load ptr, ptr %5, align 8
  %44 = getelementptr inbounds %struct.H5MF_free_section_t, ptr %43, i32 0, i32 0
  %45 = getelementptr inbounds %struct.H5FS_section_info_t, ptr %44, i32 0, i32 1
  %46 = load i64, ptr %45, align 8
  %47 = add i64 %42, %46
  store i64 %47, ptr %8, align 8
  %48 = load i64, ptr %8, align 8
  %49 = icmp ne i64 %48, -1
  br i1 %49, label %50, label %59

50:                                               ; preds = %38
  %51 = load i64, ptr %8, align 8
  %52 = load i64, ptr %7, align 8
  %53 = icmp eq i64 %51, %52
  br i1 %53, label %54, label %59

54:                                               ; preds = %50
  %55 = load ptr, ptr %6, align 8
  %56 = getelementptr inbounds %struct.H5MF_sect_ud_t, ptr %55, i32 0, i32 4
  store i32 0, ptr %56, align 8
  br label %57

57:                                               ; preds = %54
  store i32 1, ptr %9, align 4
  br label %191

58:                                               ; No predecessors!
  br label %190

59:                                               ; preds = %50, %38
  %60 = load ptr, ptr %6, align 8
  %61 = getelementptr inbounds %struct.H5MF_sect_ud_t, ptr %60, i32 0, i32 3
  %62 = load i8, ptr %61, align 1
  %63 = trunc i8 %62 to i1
  br i1 %63, label %64, label %67

64:                                               ; preds = %59
  br label %65

65:                                               ; preds = %64
  store i32 0, ptr %9, align 4
  br label %191

66:                                               ; No predecessors!
  br label %67

67:                                               ; preds = %66, %59
  %68 = load ptr, ptr %6, align 8
  %69 = getelementptr inbounds %struct.H5MF_sect_ud_t, ptr %68, i32 0, i32 0
  %70 = load ptr, ptr %69, align 8
  %71 = getelementptr inbounds %struct.H5F_t, ptr %70, i32 0, i32 2
  %72 = load ptr, ptr %71, align 8
  %73 = getelementptr inbounds %struct.H5F_shared_t, ptr %72, i32 0, i32 60
  %74 = load ptr, ptr %6, align 8
  %75 = getelementptr inbounds %struct.H5MF_sect_ud_t, ptr %74, i32 0, i32 1
  %76 = load i32, ptr %75, align 8
  %77 = sext i32 %76 to i64
  %78 = getelementptr inbounds [7 x i32], ptr %73, i64 0, i64 %77
  %79 = load i32, ptr %78, align 4
  %80 = and i32 %79, 1
  %81 = icmp ne i32 %80, 0
  br i1 %81, label %82, label %128

82:                                               ; preds = %67
  %83 = load ptr, ptr %6, align 8
  %84 = getelementptr inbounds %struct.H5MF_sect_ud_t, ptr %83, i32 0, i32 0
  %85 = load ptr, ptr %84, align 8
  %86 = load ptr, ptr %6, align 8
  %87 = getelementptr inbounds %struct.H5MF_sect_ud_t, ptr %86, i32 0, i32 0
  %88 = load ptr, ptr %87, align 8
  %89 = getelementptr inbounds %struct.H5F_t, ptr %88, i32 0, i32 2
  %90 = load ptr, ptr %89, align 8
  %91 = getelementptr inbounds %struct.H5F_shared_t, ptr %90, i32 0, i32 62
  %92 = load ptr, ptr %5, align 8
  %93 = load ptr, ptr %6, align 8
  %94 = getelementptr inbounds %struct.H5MF_sect_ud_t, ptr %93, i32 0, i32 4
  %95 = call i32 @H5MF__aggr_can_absorb(ptr noundef %85, ptr noundef %91, ptr noundef %92, ptr noundef %94)
  store i32 %95, ptr %11, align 4
  %96 = icmp slt i32 %95, 0
  br i1 %96, label %97, label %112

97:                                               ; preds = %82
  br label %98

98:                                               ; preds = %97
  br label %99

99:                                               ; preds = %98
  br label %100

100:                                              ; preds = %99
  %101 = load i64, ptr @H5E_RESOURCE_g, align 8
  %102 = load i64, ptr @H5E_CANTMERGE_g, align 8
  %103 = call i32 (ptr, ptr, i32, i64, i64, ptr, ...) @H5E_printf_stack(ptr noundef @.str, ptr noundef @__func__.H5MF__sect_simple_can_shrink, i32 noundef 469, i64 noundef %101, i64 noundef %102, ptr noundef @.str.6)
  br label %104

104:                                              ; preds = %100
  store i8 1, ptr %10, align 1
  %105 = load i8, ptr %10, align 1
  %106 = trunc i8 %105 to i1
  %107 = zext i1 %106 to i8
  store i8 %107, ptr %10, align 1
  br label %108

108:                                              ; preds = %104
  br label %109

109:                                              ; preds = %108
  store i32 -1, ptr %9, align 4
  br label %191

110:                                              ; No predecessors!
  br label %111

111:                                              ; preds = %110
  br label %127

112:                                              ; preds = %82
  %113 = load i32, ptr %11, align 4
  %114 = icmp sgt i32 %113, 0
  br i1 %114, label %115, label %126

115:                                              ; preds = %112
  %116 = load ptr, ptr %6, align 8
  %117 = getelementptr inbounds %struct.H5MF_sect_ud_t, ptr %116, i32 0, i32 0
  %118 = load ptr, ptr %117, align 8
  %119 = getelementptr inbounds %struct.H5F_t, ptr %118, i32 0, i32 2
  %120 = load ptr, ptr %119, align 8
  %121 = getelementptr inbounds %struct.H5F_shared_t, ptr %120, i32 0, i32 62
  %122 = load ptr, ptr %6, align 8
  %123 = getelementptr inbounds %struct.H5MF_sect_ud_t, ptr %122, i32 0, i32 5
  store ptr %121, ptr %123, align 8
  br label %124

124:                                              ; preds = %115
  store i32 1, ptr %9, align 4
  br label %191

125:                                              ; No predecessors!
  br label %126

126:                                              ; preds = %125, %112
  br label %127

127:                                              ; preds = %126, %111
  br label %128

128:                                              ; preds = %127, %67
  %129 = load ptr, ptr %6, align 8
  %130 = getelementptr inbounds %struct.H5MF_sect_ud_t, ptr %129, i32 0, i32 0
  %131 = load ptr, ptr %130, align 8
  %132 = getelementptr inbounds %struct.H5F_t, ptr %131, i32 0, i32 2
  %133 = load ptr, ptr %132, align 8
  %134 = getelementptr inbounds %struct.H5F_shared_t, ptr %133, i32 0, i32 60
  %135 = load ptr, ptr %6, align 8
  %136 = getelementptr inbounds %struct.H5MF_sect_ud_t, ptr %135, i32 0, i32 1
  %137 = load i32, ptr %136, align 8
  %138 = sext i32 %137 to i64
  %139 = getelementptr inbounds [7 x i32], ptr %134, i64 0, i64 %138
  %140 = load i32, ptr %139, align 4
  %141 = and i32 %140, 2
  %142 = icmp ne i32 %141, 0
  br i1 %142, label %143, label %189

143:                                              ; preds = %128
  %144 = load ptr, ptr %6, align 8
  %145 = getelementptr inbounds %struct.H5MF_sect_ud_t, ptr %144, i32 0, i32 0
  %146 = load ptr, ptr %145, align 8
  %147 = load ptr, ptr %6, align 8
  %148 = getelementptr inbounds %struct.H5MF_sect_ud_t, ptr %147, i32 0, i32 0
  %149 = load ptr, ptr %148, align 8
  %150 = getelementptr inbounds %struct.H5F_t, ptr %149, i32 0, i32 2
  %151 = load ptr, ptr %150, align 8
  %152 = getelementptr inbounds %struct.H5F_shared_t, ptr %151, i32 0, i32 63
  %153 = load ptr, ptr %5, align 8
  %154 = load ptr, ptr %6, align 8
  %155 = getelementptr inbounds %struct.H5MF_sect_ud_t, ptr %154, i32 0, i32 4
  %156 = call i32 @H5MF__aggr_can_absorb(ptr noundef %146, ptr noundef %152, ptr noundef %153, ptr noundef %155)
  store i32 %156, ptr %12, align 4
  %157 = icmp slt i32 %156, 0
  br i1 %157, label %158, label %173

158:                                              ; preds = %143
  br label %159

159:                                              ; preds = %158
  br label %160

160:                                              ; preds = %159
  br label %161

161:                                              ; preds = %160
  %162 = load i64, ptr @H5E_RESOURCE_g, align 8
  %163 = load i64, ptr @H5E_CANTMERGE_g, align 8
  %164 = call i32 (ptr, ptr, i32, i64, i64, ptr, ...) @H5E_printf_stack(ptr noundef @.str, ptr noundef @__func__.H5MF__sect_simple_can_shrink, i32 noundef 491, i64 noundef %162, i64 noundef %163, ptr noundef @.str.6)
  br label %165

165:                                              ; preds = %161
  store i8 1, ptr %10, align 1
  %166 = load i8, ptr %10, align 1
  %167 = trunc i8 %166 to i1
  %168 = zext i1 %167 to i8
  store i8 %168, ptr %10, align 1
  br label %169

169:                                              ; preds = %165
  br label %170

170:                                              ; preds = %169
  store i32 -1, ptr %9, align 4
  br label %191

171:                                              ; No predecessors!
  br label %172

172:                                              ; preds = %171
  br label %188

173:                                              ; preds = %143
  %174 = load i32, ptr %12, align 4
  %175 = icmp sgt i32 %174, 0
  br i1 %175, label %176, label %187

176:                                              ; preds = %173
  %177 = load ptr, ptr %6, align 8
  %178 = getelementptr inbounds %struct.H5MF_sect_ud_t, ptr %177, i32 0, i32 0
  %179 = load ptr, ptr %178, align 8
  %180 = getelementptr inbounds %struct.H5F_t, ptr %179, i32 0, i32 2
  %181 = load ptr, ptr %180, align 8
  %182 = getelementptr inbounds %struct.H5F_shared_t, ptr %181, i32 0, i32 63
  %183 = load ptr, ptr %6, align 8
  %184 = getelementptr inbounds %struct.H5MF_sect_ud_t, ptr %183, i32 0, i32 5
  store ptr %182, ptr %184, align 8
  br label %185

185:                                              ; preds = %176
  store i32 1, ptr %9, align 4
  br label %191

186:                                              ; No predecessors!
  br label %187

187:                                              ; preds = %186, %173
  br label %188

188:                                              ; preds = %187, %172
  br label %189

189:                                              ; preds = %188, %128
  br label %190

190:                                              ; preds = %189, %58
  store i32 0, ptr %9, align 4
  br label %191

191:                                              ; preds = %190, %185, %170, %124, %109, %65, %57, %35
  %192 = load i32, ptr %9, align 4
  ret i32 %192
}