; Function Attrs: nounwind uwtable
define internal range(i32 -1, 2) i32 @H5MF__sect_simple_can_shrink(ptr noundef %0, ptr noundef %1) #0 {
  %3 = load ptr, ptr %1, align 8
  %4 = getelementptr inbounds i8, ptr %1, i64 8
  %5 = load i32, ptr %4, align 8
  %6 = tail call i64 @H5F_get_eoa(ptr noundef %3, i32 noundef %5) #5
  %7 = icmp eq i64 %6, -1
  br i1 %7, label %8, label %12

8:                                                ; preds = %2
  %9 = load i64, ptr @H5E_RESOURCE_g, align 8
  %10 = load i64, ptr @H5E_CANTGET_g, align 8
  %11 = tail call i32 (ptr, ptr, i32, i64, i64, ptr, ...) @H5E_printf_stack(ptr noundef nonnull @.str, ptr noundef nonnull @__func__.H5MF__sect_simple_can_shrink, i32 noundef 439, i64 noundef %9, i64 noundef %10, ptr noundef nonnull @.str.5) #5
  br label %68

12:                                               ; preds = %2
  %13 = load i64, ptr %0, align 8
  %14 = getelementptr inbounds i8, ptr %0, i64 8
  %15 = load i64, ptr %14, align 8
  %16 = add i64 %15, %13
  %17 = icmp eq i64 %16, %6
  br i1 %17, label %18, label %20

18:                                               ; preds = %12
  %19 = getelementptr inbounds i8, ptr %1, i64 16
  store i32 0, ptr %19, align 8
  br label %68

20:                                               ; preds = %12
  %21 = getelementptr inbounds i8, ptr %1, i64 13
  %22 = load i8, ptr %21, align 1
  %23 = trunc i8 %22 to i1
  br i1 %23, label %68, label %24

24:                                               ; preds = %20
  %25 = load ptr, ptr %1, align 8
  %26 = getelementptr inbounds i8, ptr %25, i64 16
  %27 = load ptr, ptr %26, align 8
  %28 = getelementptr inbounds i8, ptr %27, i64 1848
  %29 = load i32, ptr %4, align 8
  %30 = sext i32 %29 to i64
  %31 = getelementptr inbounds [7 x i32], ptr %28, i64 0, i64 %30
  %32 = load i32, ptr %31, align 4
  %33 = and i32 %32, 1
  %.not36 = icmp eq i32 %33, 0
  br i1 %.not36, label %47, label %34

34:                                               ; preds = %24
  %35 = getelementptr inbounds i8, ptr %27, i64 1904
  %36 = getelementptr inbounds i8, ptr %1, i64 16
  %37 = tail call i32 @H5MF__aggr_can_absorb(ptr noundef nonnull %25, ptr noundef nonnull %35, ptr noundef nonnull %0, ptr noundef nonnull %36) #5
  %38 = icmp slt i32 %37, 0
  br i1 %38, label %39, label %43

39:                                               ; preds = %34
  %40 = load i64, ptr @H5E_RESOURCE_g, align 8
  %41 = load i64, ptr @H5E_CANTMERGE_g, align 8
  %42 = tail call i32 (ptr, ptr, i32, i64, i64, ptr, ...) @H5E_printf_stack(ptr noundef nonnull @.str, ptr noundef nonnull @__func__.H5MF__sect_simple_can_shrink, i32 noundef 469, i64 noundef %40, i64 noundef %41, ptr noundef nonnull @.str.6) #5
  br label %68

43:                                               ; preds = %34
  %.not37 = icmp eq i32 %37, 0
  %.pre = load ptr, ptr %1, align 8
  %.phi.trans.insert = getelementptr inbounds i8, ptr %.pre, i64 16
  %.pre40 = load ptr, ptr %.phi.trans.insert, align 8
  br i1 %.not37, label %._crit_edge, label %44

._crit_edge:                                      ; preds = %43
  %.pre41 = load i32, ptr %4, align 8
  %.phi.trans.insert42 = getelementptr inbounds i8, ptr %.pre40, i64 1848
  %.phi.trans.insert43 = sext i32 %.pre41 to i64
  %.phi.trans.insert44 = getelementptr inbounds [7 x i32], ptr %.phi.trans.insert42, i64 0, i64 %.phi.trans.insert43
  %.pre45 = load i32, ptr %.phi.trans.insert44, align 4
  br label %47

44:                                               ; preds = %43
  %45 = getelementptr inbounds i8, ptr %.pre40, i64 1904
  %46 = getelementptr inbounds i8, ptr %1, i64 24
  store ptr %45, ptr %46, align 8
  br label %68

47:                                               ; preds = %._crit_edge, %24
  %48 = phi i32 [ %.pre45, %._crit_edge ], [ %32, %24 ]
  %49 = phi ptr [ %.pre40, %._crit_edge ], [ %27, %24 ]
  %50 = phi ptr [ %.pre, %._crit_edge ], [ %25, %24 ]
  %51 = and i32 %48, 2
  %.not38 = icmp eq i32 %51, 0
  br i1 %.not38, label %68, label %52

52:                                               ; preds = %47
  %53 = getelementptr inbounds i8, ptr %49, i64 1944
  %54 = getelementptr inbounds i8, ptr %1, i64 16
  %55 = tail call i32 @H5MF__aggr_can_absorb(ptr noundef nonnull %50, ptr noundef nonnull %53, ptr noundef nonnull %0, ptr noundef nonnull %54) #5
  %56 = icmp slt i32 %55, 0
  br i1 %56, label %57, label %61

57:                                               ; preds = %52
  %58 = load i64, ptr @H5E_RESOURCE_g, align 8
  %59 = load i64, ptr @H5E_CANTMERGE_g, align 8
  %60 = tail call i32 (ptr, ptr, i32, i64, i64, ptr, ...) @H5E_printf_stack(ptr noundef nonnull @.str, ptr noundef nonnull @__func__.H5MF__sect_simple_can_shrink, i32 noundef 491, i64 noundef %58, i64 noundef %59, ptr noundef nonnull @.str.6) #5
  br label %68

61:                                               ; preds = %52
  %.not39 = icmp eq i32 %55, 0
  br i1 %.not39, label %68, label %62

62:                                               ; preds = %61
  %63 = load ptr, ptr %1, align 8
  %64 = getelementptr inbounds i8, ptr %63, i64 16
  %65 = load ptr, ptr %64, align 8
  %66 = getelementptr inbounds i8, ptr %65, i64 1944
  %67 = getelementptr inbounds i8, ptr %1, i64 24
  store ptr %66, ptr %67, align 8
  br label %68

68:                                               ; preds = %61, %47, %20, %62, %57, %44, %39, %18, %8
  %.0 = phi i32 [ -1, %8 ], [ 1, %18 ], [ -1, %39 ], [ 1, %44 ], [ -1, %57 ], [ 1, %62 ], [ 0, %20 ], [ 0, %47 ], [ 0, %61 ]
  ret i32 %.0
}